target datalayout = "e-m:e-p270:32:32-p271:32:32-p272:64:64-i64:64-i128:128-f80:128-n8:16:32:64-S128"
target triple = "x86_64-pc-linux-gnu"

%"struct.(anonymous namespace)::ExtensionListEntry" = type { ptr, ptr, ptr }

@_ZN12_GLOBAL__N_120LOCALE_ATTRIBUTE_KEYE = internal constant [10 x i8] c"attribute\00", align 1

; Function Attrs: mustprogress nounwind uwtable
define internal noundef zeroext i1 @_ZN12_GLOBAL__N_119_addExtensionToListEPPNS_18ExtensionListEntryES1_b(ptr noundef %0, ptr noundef %1, i1 noundef zeroext %2) #0 {
  %4 = alloca ptr, align 8
  %5 = alloca ptr, align 8
  %6 = alloca i8, align 1
  %7 = alloca i8, align 1
  %8 = alloca ptr, align 8
  %9 = alloca ptr, align 8
  %10 = alloca i32, align 4
  %11 = alloca i32, align 4
  %12 = alloca i32, align 4
  store ptr %0, ptr %4, align 8, !tbaa !165
  store ptr %1, ptr %5, align 8, !tbaa !74
  %13 = zext i1 %2 to i8
  store i8 %13, ptr %6, align 1, !tbaa !33
  call void @llvm.lifetime.start.p0(i64 1, ptr %7) #12
  store i8 1, ptr %7, align 1, !tbaa !33
  %14 = load ptr, ptr %4, align 8, !tbaa !165
  %15 = load ptr, ptr %14, align 8, !tbaa !74
  %16 = icmp eq ptr %15, null
  br i1 %16, label %17, label %22

17:                                               ; preds = %3
  %18 = load ptr, ptr %5, align 8, !tbaa !74
  %19 = getelementptr inbounds nuw %"struct.(anonymous namespace)::ExtensionListEntry", ptr %18, i32 0, i32 2
  store ptr null, ptr %19, align 8, !tbaa !88
  %20 = load ptr, ptr %5, align 8, !tbaa !74
  %21 = load ptr, ptr %4, align 8, !tbaa !165
  store ptr %20, ptr %21, align 8, !tbaa !74
  br label %183

22:                                               ; preds = %3
  call void @llvm.lifetime.start.p0(i64 8, ptr %8) #12
  call void @llvm.lifetime.start.p0(i64 8, ptr %9) #12
  call void @llvm.lifetime.start.p0(i64 4, ptr %10) #12
  store ptr null, ptr %8, align 8, !tbaa !74
  %23 = load ptr, ptr %4, align 8, !tbaa !165
  %24 = load ptr, ptr %23, align 8, !tbaa !74
  store ptr %24, ptr %9, align 8, !tbaa !74
  br label %25

25:                                               ; preds = %177, %22
  br label %26

26:                                               ; preds = %25
  %27 = load ptr, ptr %9, align 8, !tbaa !74
  %28 = icmp eq ptr %27, null
  br i1 %28, label %29, label %35

29:                                               ; preds = %26
  %30 = load ptr, ptr %5, align 8, !tbaa !74
  %31 = load ptr, ptr %8, align 8, !tbaa !74
  %32 = getelementptr inbounds nuw %"struct.(anonymous namespace)::ExtensionListEntry", ptr %31, i32 0, i32 2
  store ptr %30, ptr %32, align 8, !tbaa !88
  %33 = load ptr, ptr %5, align 8, !tbaa !74
  %34 = getelementptr inbounds nuw %"struct.(anonymous namespace)::ExtensionListEntry", ptr %33, i32 0, i32 2
  store ptr null, ptr %34, align 8, !tbaa !88
  br label %182

35:                                               ; preds = %26
  %36 = load i8, ptr %6, align 1, !tbaa !33, !range !41, !noundef !42
  %37 = trunc i8 %36 to i1
  br i1 %37, label %38, label %148

38:                                               ; preds = %35
  call void @llvm.lifetime.start.p0(i64 4, ptr %11) #12
  call void @llvm.lifetime.start.p0(i64 4, ptr %12) #12
  %39 = load ptr, ptr %5, align 8, !tbaa !74
  %40 = getelementptr inbounds nuw %"struct.(anonymous namespace)::ExtensionListEntry", ptr %39, i32 0, i32 0
  %41 = load ptr, ptr %40, align 8, !tbaa !83
  %42 = call i64 @strlen(ptr noundef %41) #15
  %43 = trunc i64 %42 to i32
  store i32 %43, ptr %11, align 4, !tbaa !14
  %44 = load ptr, ptr %9, align 8, !tbaa !74
  %45 = getelementptr inbounds nuw %"struct.(anonymous namespace)::ExtensionListEntry", ptr %44, i32 0, i32 0
  %46 = load ptr, ptr %45, align 8, !tbaa !83
  %47 = call i64 @strlen(ptr noundef %46) #15
  %48 = trunc i64 %47 to i32
  store i32 %48, ptr %12, align 4, !tbaa !14
  %49 = load i32, ptr %11, align 4, !tbaa !14
  %50 = icmp eq i32 %49, 1
  br i1 %50, label %51, label %98

51:                                               ; preds = %38
  %52 = load i32, ptr %12, align 4, !tbaa !14
  %53 = icmp eq i32 %52, 1
  br i1 %53, label %54, label %98

54:                                               ; preds = %51
  %55 = load ptr, ptr %5, align 8, !tbaa !74
  %56 = getelementptr inbounds nuw %"struct.(anonymous namespace)::ExtensionListEntry", ptr %55, i32 0, i32 0
  %57 = load ptr, ptr %56, align 8, !tbaa !83
  %58 = load i8, ptr %57, align 1, !tbaa !23
  %59 = sext i8 %58 to i32
  %60 = load ptr, ptr %9, align 8, !tbaa !74
  %61 = getelementptr inbounds nuw %"struct.(anonymous namespace)::ExtensionListEntry", ptr %60, i32 0, i32 0
  %62 = load ptr, ptr %61, align 8, !tbaa !83
  %63 = load i8, ptr %62, align 1, !tbaa !23
  %64 = sext i8 %63 to i32
  %65 = icmp eq i32 %59, %64
  br i1 %65, label %66, label %67

66:                                               ; preds = %54
  store i32 0, ptr %10, align 4, !tbaa !14
  br label %97

67:                                               ; preds = %54
  %68 = load ptr, ptr %5, align 8, !tbaa !74
  %69 = getelementptr inbounds nuw %"struct.(anonymous namespace)::ExtensionListEntry", ptr %68, i32 0, i32 0
  %70 = load ptr, ptr %69, align 8, !tbaa !83
  %71 = load i8, ptr %70, align 1, !tbaa !23
  %72 = sext i8 %71 to i32
  %73 = icmp eq i32 %72, 120
  br i1 %73, label %74, label %75

74:                                               ; preds = %67
  store i32 1, ptr %10, align 4, !tbaa !14
  br label %96

75:                                               ; preds = %67
  %76 = load ptr, ptr %9, align 8, !tbaa !74
  %77 = getelementptr inbounds nuw %"struct.(anonymous namespace)::ExtensionListEntry", ptr %76, i32 0, i32 0
  %78 = load ptr, ptr %77, align 8, !tbaa !83
  %79 = load i8, ptr %78, align 1, !tbaa !23
  %80 = sext i8 %79 to i32
  %81 = icmp eq i32 %80, 120
  br i1 %81, label %82, label %83

82:                                               ; preds = %75
  store i32 -1, ptr %10, align 4, !tbaa !14
  br label %95

83:                                               ; preds = %75
  %84 = load ptr, ptr %5, align 8, !tbaa !74
  %85 = getelementptr inbounds nuw %"struct.(anonymous namespace)::ExtensionListEntry", ptr %84, i32 0, i32 0
  %86 = load ptr, ptr %85, align 8, !tbaa !83
  %87 = load i8, ptr %86, align 1, !tbaa !23
  %88 = sext i8 %87 to i32
  %89 = load ptr, ptr %9, align 8, !tbaa !74
  %90 = getelementptr inbounds nuw %"struct.(anonymous namespace)::ExtensionListEntry", ptr %89, i32 0, i32 0
  %91 = load ptr, ptr %90, align 8, !tbaa !83
  %92 = load i8, ptr %91, align 1, !tbaa !23
  %93 = sext i8 %92 to i32
  %94 = sub nsw i32 %88, %93
  store i32 %94, ptr %10, align 4, !tbaa !14
  br label %95

95:                                               ; preds = %83, %82
  br label %96

96:                                               ; preds = %95, %74
  br label %97

97:                                               ; preds = %96, %66
  br label %147

98:                                               ; preds = %51, %38
  %99 = load i32, ptr %11, align 4, !tbaa !14
  %100 = icmp eq i32 %99, 1
  br i1 %100, label %101, label %108

101:                                              ; preds = %98
  %102 = load ptr, ptr %5, align 8, !tbaa !74
  %103 = getelementptr inbounds nuw %"struct.(anonymous namespace)::ExtensionListEntry", ptr %102, i32 0, i32 0
  %104 = load ptr, ptr %103, align 8, !tbaa !83
  %105 = load i8, ptr %104, align 1, !tbaa !23
  %106 = sext i8 %105 to i32
  %107 = sub nsw i32 %106, 117
  store i32 %107, ptr %10, align 4, !tbaa !14
  br label %146

108:                                              ; preds = %98
  %109 = load i32, ptr %12, align 4, !tbaa !14
  %110 = icmp eq i32 %109, 1
  br i1 %110, label %111, label %118

111:                                              ; preds = %108
  %112 = load ptr, ptr %9, align 8, !tbaa !74
  %113 = getelementptr inbounds nuw %"struct.(anonymous namespace)::ExtensionListEntry", ptr %112, i32 0, i32 0
  %114 = load ptr, ptr %113, align 8, !tbaa !83
  %115 = load i8, ptr %114, align 1, !tbaa !23
  %116 = sext i8 %115 to i32
  %117 = sub nsw i32 117, %116
  store i32 %117, ptr %10, align 4, !tbaa !14
  br label %145

118:                                              ; preds = %108
  %119 = load ptr, ptr %5, align 8, !tbaa !74
  %120 = getelementptr inbounds nuw %"struct.(anonymous namespace)::ExtensionListEntry", ptr %119, i32 0, i32 0
  %121 = load ptr, ptr %120, align 8, !tbaa !83
  %122 = load ptr, ptr %9, align 8, !tbaa !74
  %123 = getelementptr inbounds nuw %"struct.(anonymous namespace)::ExtensionListEntry", ptr %122, i32 0, i32 0
  %124 = load ptr, ptr %123, align 8, !tbaa !83
  %125 = call i32 @strcmp(ptr noundef %121, ptr noundef %124) #15
  store i32 %125, ptr %10, align 4, !tbaa !14
  %126 = load i32, ptr %10, align 4, !tbaa !14
  %127 = icmp ne i32 %126, 0
  br i1 %127, label %128, label %144

128:                                              ; preds = %118
  %129 = load ptr, ptr %9, align 8, !tbaa !74
  %130 = getelementptr inbounds nuw %"struct.(anonymous namespace)::ExtensionListEntry", ptr %129, i32 0, i32 0
  %131 = load ptr, ptr %130, align 8, !tbaa !83
  %132 = call i32 @strcmp(ptr noundef %131, ptr noundef @_ZN12_GLOBAL__N_120LOCALE_ATTRIBUTE_KEYE) #15
  %133 = icmp eq i32 %132, 0
  br i1 %133, label %134, label %135

134:                                              ; preds = %128
  store i32 1, ptr %10, align 4, !tbaa !14
  br label %143

135:                                              ; preds = %128
  %136 = load ptr, ptr %5, align 8, !tbaa !74
  %137 = getelementptr inbounds nuw %"struct.(anonymous namespace)::ExtensionListEntry", ptr %136, i32 0, i32 0
  %138 = load ptr, ptr %137, align 8, !tbaa !83
  %139 = call i32 @strcmp(ptr noundef %138, ptr noundef @_ZN12_GLOBAL__N_120LOCALE_ATTRIBUTE_KEYE) #15
  %140 = icmp eq i32 %139, 0
  br i1 %140, label %141, label %142

141:                                              ; preds = %135
  store i32 -1, ptr %10, align 4, !tbaa !14
  br label %142

142:                                              ; preds = %141, %135
  br label %143

143:                                              ; preds = %142, %134
  br label %144

144:                                              ; preds = %143, %118
  br label %145

145:                                              ; preds = %144, %111
  br label %146

146:                                              ; preds = %145, %101
  br label %147

147:                                              ; preds = %146, %97
  call void @llvm.lifetime.end.p0(i64 4, ptr %12) #12
  call void @llvm.lifetime.end.p0(i64 4, ptr %11) #12
  br label %156

148:                                              ; preds = %35
  %149 = load ptr, ptr %5, align 8, !tbaa !74
  %150 = getelementptr inbounds nuw %"struct.(anonymous namespace)::ExtensionListEntry", ptr %149, i32 0, i32 0
  %151 = load ptr, ptr %150, align 8, !tbaa !83
  %152 = load ptr, ptr %9, align 8, !tbaa !74
  %153 = getelementptr inbounds nuw %"struct.(anonymous namespace)::ExtensionListEntry", ptr %152, i32 0, i32 0
  %154 = load ptr, ptr %153, align 8, !tbaa !83
  %155 = call i32 @strcmp(ptr noundef %151, ptr noundef %154) #15
  store i32 %155, ptr %10, align 4, !tbaa !14
  br label %156

156:                                              ; preds = %148, %147
  %157 = load i32, ptr %10, align 4, !tbaa !14
  %158 = icmp slt i32 %157, 0
  br i1 %158, label %159, label %173

159:                                              ; preds = %156
  %160 = load ptr, ptr %8, align 8, !tbaa !74
  %161 = icmp eq ptr %160, null
  br i1 %161, label %162, label %165

162:                                              ; preds = %159
  %163 = load ptr, ptr %5, align 8, !tbaa !74
  %164 = load ptr, ptr %4, align 8, !tbaa !165
  store ptr %163, ptr %164, align 8, !tbaa !74
  br label %169

165:                                              ; preds = %159
  %166 = load ptr, ptr %5, align 8, !tbaa !74
  %167 = load ptr, ptr %8, align 8, !tbaa !74
  %168 = getelementptr inbounds nuw %"struct.(anonymous namespace)::ExtensionListEntry", ptr %167, i32 0, i32 2
  store ptr %166, ptr %168, align 8, !tbaa !88
  br label %169

169:                                              ; preds = %165, %162
  %170 = load ptr, ptr %9, align 8, !tbaa !74
  %171 = load ptr, ptr %5, align 8, !tbaa !74
  %172 = getelementptr inbounds nuw %"struct.(anonymous namespace)::ExtensionListEntry", ptr %171, i32 0, i32 2
  store ptr %170, ptr %172, align 8, !tbaa !88
  br label %182

173:                                              ; preds = %156
  %174 = load i32, ptr %10, align 4, !tbaa !14
  %175 = icmp eq i32 %174, 0
  br i1 %175, label %176, label %177

176:                                              ; preds = %173
  store i8 0, ptr %7, align 1, !tbaa !33
  br label %182

177:                                              ; preds = %173
  %178 = load ptr, ptr %9, align 8, !tbaa !74
  store ptr %178, ptr %8, align 8, !tbaa !74
  %179 = load ptr, ptr %9, align 8, !tbaa !74
  %180 = getelementptr inbounds nuw %"struct.(anonymous namespace)::ExtensionListEntry", ptr %179, i32 0, i32 2
  %181 = load ptr, ptr %180, align 8, !tbaa !88
  store ptr %181, ptr %9, align 8, !tbaa !74
  br label %25, !llvm.loop !166

182:                                              ; preds = %176, %169, %29
  call void @llvm.lifetime.end.p0(i64 4, ptr %10) #12
  call void @llvm.lifetime.end.p0(i64 8, ptr %9) #12
  call void @llvm.lifetime.end.p0(i64 8, ptr %8) #12
  br label %183

183:                                              ; preds = %182, %17
  %184 = load i8, ptr %7, align 1, !tbaa !33, !range !41, !noundef !42
  %185 = trunc i8 %184 to i1
  call void @llvm.lifetime.end.p0(i64 1, ptr %7) #12
  ret i1 %185
}