; Function Attrs: mustprogress nofree nounwind memory(readwrite, inaccessiblemem: none) uwtable
define internal fastcc noundef zeroext i1 @_ZN12_GLOBAL__N_119_addExtensionToListEPPNS_18ExtensionListEntryES1_b(ptr noundef captures(none) %0, ptr noundef %1, i1 noundef zeroext %2) unnamed_addr #12 {
  %4 = load ptr, ptr %0, align 8, !tbaa !73
  %5 = icmp eq ptr %4, null
  br i1 %5, label %57, label %.preheader

.preheader:                                       ; preds = %3
  %6 = load ptr, ptr %1, align 8, !tbaa !92
  br i1 %2, label %.preheader.split.us, label %.preheader.split

.preheader.split.us:                              ; preds = %.preheader
  %7 = tail call i64 @strlen(ptr noundef nonnull dereferenceable(1) %6) #20
  %.fr = freeze i64 %7
  %8 = and i64 %.fr, 4294967295
  %9 = icmp eq i64 %8, 1
  br i1 %9, label %.preheader.split.us.split.us.preheader, label %.preheader.split.us.split

.preheader.split.us.split.us.preheader:           ; preds = %.preheader.split.us
  %10 = load i8, ptr %6, align 1, !tbaa !15
  %11 = sext i8 %10 to i32
  %12 = add nsw i32 %11, -117
  %13 = icmp eq i8 %10, 120
  br label %.preheader.split.us.split.us

.preheader.split.us.split.us:                     ; preds = %.preheader.split.us.split.us.preheader, %.thread.thread61.us.us
  %.04368.us.us = phi ptr [ %.04667.us.us, %.thread.thread61.us.us ], [ null, %.preheader.split.us.split.us.preheader ]
  %.04667.us.us = phi ptr [ %30, %.thread.thread61.us.us ], [ %4, %.preheader.split.us.split.us.preheader ]
  %14 = load ptr, ptr %.04667.us.us, align 8, !tbaa !92
  %15 = tail call i64 @strlen(ptr noundef nonnull dereferenceable(1) %14) #20
  %16 = and i64 %15, 4294967295
  %17 = icmp eq i64 %16, 1
  br i1 %17, label %18, label %26

18:                                               ; preds = %.preheader.split.us.split.us
  %19 = load i8, ptr %14, align 1, !tbaa !15
  %20 = sext i8 %19 to i32
  %21 = icmp eq i8 %10, %19
  br i1 %21, label %.thread.thread, label %22

22:                                               ; preds = %18
  br i1 %13, label %.thread.thread61.us.us, label %23

23:                                               ; preds = %22
  %24 = icmp eq i8 %19, 120
  %25 = sub nsw i32 %11, %20
  br i1 %24, label %.thread57, label %26

26:                                               ; preds = %.preheader.split.us.split.us, %23
  %.145.us.us = phi i32 [ %25, %23 ], [ %12, %.preheader.split.us.split.us ]
  %27 = icmp slt i32 %.145.us.us, 0
  br i1 %27, label %.thread57, label %.thread.us.us

.thread.us.us:                                    ; preds = %26
  %28 = icmp eq i32 %.145.us.us, 0
  br i1 %28, label %.thread.thread, label %.thread.thread61.us.us

.thread.thread61.us.us:                           ; preds = %.thread.us.us, %22
  %29 = getelementptr inbounds nuw i8, ptr %.04667.us.us, i64 16
  %30 = load ptr, ptr %29, align 8, !tbaa !96
  %31 = icmp eq ptr %30, null
  br i1 %31, label %.split.us, label %.preheader.split.us.split.us, !llvm.loop !143

.preheader.split.us.split:                        ; preds = %.preheader.split.us, %.thread.thread61.us
  %.04368.us = phi ptr [ %.04667.us, %.thread.thread61.us ], [ null, %.preheader.split.us ]
  %.04667.us = phi ptr [ %52, %.thread.thread61.us ], [ %4, %.preheader.split.us ]
  %32 = load ptr, ptr %.04667.us, align 8, !tbaa !92
  %33 = tail call i64 @strlen(ptr noundef nonnull dereferenceable(1) %32) #20
  %34 = and i64 %33, 4294967295
  %35 = icmp eq i64 %34, 1
  br i1 %35, label %44, label %36

36:                                               ; preds = %.preheader.split.us.split
  %37 = tail call i32 @strcmp(ptr noundef nonnull dereferenceable(1) %6, ptr noundef nonnull dereferenceable(1) %32) #20
  %.not.us = icmp eq i32 %37, 0
  br i1 %.not.us, label %.thread.thread, label %38

38:                                               ; preds = %36
  %39 = tail call i32 @strcmp(ptr noundef nonnull dereferenceable(1) %32, ptr noundef nonnull dereferenceable(10) @_ZN12_GLOBAL__N_120LOCALE_ATTRIBUTE_KEYE) #20
  %40 = icmp eq i32 %39, 0
  br i1 %40, label %.thread.thread61.us, label %41

41:                                               ; preds = %38
  %42 = tail call i32 @strcmp(ptr noundef nonnull dereferenceable(1) %6, ptr noundef nonnull dereferenceable(10) @_ZN12_GLOBAL__N_120LOCALE_ATTRIBUTE_KEYE) #20
  %43 = icmp eq i32 %42, 0
  br i1 %43, label %.thread57, label %48

44:                                               ; preds = %.preheader.split.us.split
  %45 = load i8, ptr %32, align 1, !tbaa !15
  %46 = sext i8 %45 to i32
  %47 = sub nsw i32 117, %46
  br label %48

48:                                               ; preds = %44, %41
  %.145.us = phi i32 [ %47, %44 ], [ %37, %41 ]
  %49 = icmp slt i32 %.145.us, 0
  br i1 %49, label %.thread57, label %.thread.us

.thread.us:                                       ; preds = %48
  %50 = icmp eq i32 %.145.us, 0
  br i1 %50, label %.thread.thread, label %.thread.thread61.us

.thread.thread61.us:                              ; preds = %.thread.us, %38
  %51 = getelementptr inbounds nuw i8, ptr %.04667.us, i64 16
  %52 = load ptr, ptr %51, align 8, !tbaa !96
  %53 = icmp eq ptr %52, null
  br i1 %53, label %.split.us, label %.preheader.split.us.split, !llvm.loop !143

.preheader.split:                                 ; preds = %.preheader
  %54 = load ptr, ptr %4, align 8, !tbaa !92
  %55 = tail call i32 @strcmp(ptr noundef nonnull dereferenceable(1) %6, ptr noundef nonnull dereferenceable(1) %54) #20
  %56 = icmp slt i32 %55, 0
  br i1 %56, label %.thread57.thread, label %.thread

57:                                               ; preds = %3
  %58 = getelementptr inbounds nuw i8, ptr %1, i64 16
  store ptr null, ptr %58, align 8, !tbaa !96
  store ptr %1, ptr %0, align 8, !tbaa !73
  br label %.thread.thread

.split.us:                                        ; preds = %.thread.thread61, %.thread.thread61.us, %.thread.thread61.us.us
  %.us-phi70 = phi ptr [ %.04667.us.us, %.thread.thread61.us.us ], [ %.04667.us, %.thread.thread61.us ], [ %.0466775, %.thread.thread61 ]
  %59 = getelementptr inbounds nuw i8, ptr %.us-phi70, i64 16
  store ptr %1, ptr %59, align 8, !tbaa !96
  %60 = getelementptr inbounds nuw i8, ptr %1, i64 16
  store ptr null, ptr %60, align 8, !tbaa !96
  br label %.thread.thread

61:                                               ; preds = %.thread.thread61
  %62 = load ptr, ptr %72, align 8, !tbaa !92
  %63 = tail call i32 @strcmp(ptr noundef nonnull dereferenceable(1) %6, ptr noundef nonnull dereferenceable(1) %62) #20
  %64 = icmp slt i32 %63, 0
  br i1 %64, label %.thread57.thread102, label %.thread, !llvm.loop !143

.thread57:                                        ; preds = %48, %41, %26, %23
  %.us-phi = phi ptr [ %.04667.us.us, %23 ], [ %.04667.us.us, %26 ], [ %.04667.us, %41 ], [ %.04667.us, %48 ]
  %.us-phi69 = phi ptr [ %.04368.us.us, %23 ], [ %.04368.us.us, %26 ], [ %.04368.us, %41 ], [ %.04368.us, %48 ]
  %65 = icmp eq ptr %.us-phi69, null
  br i1 %65, label %.thread57.thread, label %.thread57.thread102

.thread57.thread:                                 ; preds = %.preheader.split, %.thread57
  %.us-phi101 = phi ptr [ %.us-phi, %.thread57 ], [ %4, %.preheader.split ]
  store ptr %1, ptr %0, align 8, !tbaa !73
  br label %67

.thread57.thread102:                              ; preds = %61, %.thread57
  %.us-phi69106 = phi ptr [ %.us-phi69, %.thread57 ], [ %.0466775, %61 ]
  %.us-phi105 = phi ptr [ %.us-phi, %.thread57 ], [ %72, %61 ]
  %66 = getelementptr inbounds nuw i8, ptr %.us-phi69106, i64 16
  store ptr %1, ptr %66, align 8, !tbaa !96
  br label %67

67:                                               ; preds = %.thread57.thread102, %.thread57.thread
  %.us-phi100 = phi ptr [ %.us-phi105, %.thread57.thread102 ], [ %.us-phi101, %.thread57.thread ]
  %68 = getelementptr inbounds nuw i8, ptr %1, i64 16
  store ptr %.us-phi100, ptr %68, align 8, !tbaa !96
  br label %.thread.thread

.thread:                                          ; preds = %.preheader.split, %61
  %69 = phi i32 [ %63, %61 ], [ %55, %.preheader.split ]
  %.0466775 = phi ptr [ %72, %61 ], [ %4, %.preheader.split ]
  %70 = icmp eq i32 %69, 0
  br i1 %70, label %.thread.thread, label %.thread.thread61

.thread.thread61:                                 ; preds = %.thread
  %71 = getelementptr inbounds nuw i8, ptr %.0466775, i64 16
  %72 = load ptr, ptr %71, align 8, !tbaa !96
  %73 = icmp eq ptr %72, null
  br i1 %73, label %.split.us, label %61, !llvm.loop !143

.thread.thread:                                   ; preds = %.thread, %36, %.thread.us, %18, %.thread.us.us, %.split.us, %67, %57
  %.0 = phi i1 [ true, %57 ], [ true, %.split.us ], [ true, %67 ], [ false, %.thread.us.us ], [ false, %18 ], [ false, %.thread.us ], [ false, %36 ], [ false, %.thread ]
  ret i1 %.0
}